; ModuleID = '46/3534.c'
source_filename = "46/3534.c"
target datalayout = "e-m:e-p270:32:32-p271:32:32-p272:64:64-i64:64-f80:128-n8:16:32:64-S128"
target triple = "x86_64-pc-linux-gnu"

@.str = private unnamed_addr constant [5 x i8] c"%d%d\00", align 1
@.str.1 = private unnamed_addr constant [3 x i8] c"%d\00", align 1
@.str.2 = private unnamed_addr constant [4 x i8] c"%d\0A\00", align 1

; Function Attrs: noinline nounwind uwtable
define dso_local i32 @main() #0 {
  %1 = alloca i32, align 4
  %2 = alloca i32, align 4
  %3 = alloca i32, align 4
  %4 = alloca i32, align 4
  %5 = alloca i32, align 4
  %6 = alloca i32, align 4
  %7 = alloca i32, align 4
  %8 = alloca i32, align 4
  %9 = alloca i32, align 4
  %10 = alloca i32, align 4
  %11 = alloca [101 x [101 x i32]], align 16
  store i32 0, i32* %1, align 4
  %12 = call i32 (i8*, ...) @__isoc99_scanf(i8* getelementptr inbounds ([5 x i8], [5 x i8]* @.str, i64 0, i64 0), i32* %2, i32* %3)
  store i32 0, i32* %4, align 4
  br label %13

13:                                               ; preds = %34, %0
  %14 = load i32, i32* %4, align 4
  %15 = load i32, i32* %2, align 4
  %16 = icmp slt i32 %14, %15
  br i1 %16, label %17, label %37

17:                                               ; preds = %13
  store i32 0, i32* %5, align 4
  br label %18

18:                                               ; preds = %30, %17
  %19 = load i32, i32* %5, align 4
  %20 = load i32, i32* %3, align 4
  %21 = icmp slt i32 %19, %20
  br i1 %21, label %22, label %33

22:                                               ; preds = %18
  %23 = load i32, i32* %4, align 4
  %24 = sext i32 %23 to i64
  %25 = getelementptr inbounds [101 x [101 x i32]], [101 x [101 x i32]]* %11, i64 0, i64 %24
  %26 = load i32, i32* %5, align 4
  %27 = sext i32 %26 to i64
  %28 = getelementptr inbounds [101 x i32], [101 x i32]* %25, i64 0, i64 %27
  %29 = call i32 (i8*, ...) @__isoc99_scanf(i8* getelementptr inbounds ([3 x i8], [3 x i8]* @.str.1, i64 0, i64 0), i32* %28)
  br label %30

30:                                               ; preds = %22
  %31 = load i32, i32* %5, align 4
  %32 = add nsw i32 %31, 1
  store i32 %32, i32* %5, align 4
  br label %18

33:                                               ; preds = %18
  br label %34

34:                                               ; preds = %33
  %35 = load i32, i32* %4, align 4
  %36 = add nsw i32 %35, 1
  store i32 %36, i32* %4, align 4
  br label %13

37:                                               ; preds = %13
  %38 = load i32, i32* %2, align 4
  %39 = load i32, i32* %3, align 4
  %40 = mul nsw i32 %38, %39
  store i32 %40, i32* %6, align 4
  store i32 0, i32* %4, align 4
  br label %41

41:                                               ; preds = %155, %37
  %42 = load i32, i32* %4, align 4
  store i32 %42, i32* %7, align 4
  br label %43

43:                                               ; preds = %64, %41
  %44 = load i32, i32* %7, align 4
  %45 = load i32, i32* %3, align 4
  %46 = load i32, i32* %4, align 4
  %47 = sub nsw i32 %45, %46
  %48 = icmp slt i32 %44, %47
  br i1 %48, label %49, label %67

49:                                               ; preds = %43
  %50 = load i32, i32* %4, align 4
  %51 = sext i32 %50 to i64
  %52 = getelementptr inbounds [101 x [101 x i32]], [101 x [101 x i32]]* %11, i64 0, i64 %51
  %53 = load i32, i32* %7, align 4
  %54 = sext i32 %53 to i64
  %55 = getelementptr inbounds [101 x i32], [101 x i32]* %52, i64 0, i64 %54
  %56 = load i32, i32* %55, align 4
  %57 = call i32 (i8*, ...) @printf(i8* getelementptr inbounds ([4 x i8], [4 x i8]* @.str.2, i64 0, i64 0), i32 %56)
  %58 = load i32, i32* %6, align 4
  %59 = add nsw i32 %58, -1
  store i32 %59, i32* %6, align 4
  %60 = load i32, i32* %6, align 4
  %61 = icmp eq i32 %60, 0
  br i1 %61, label %62, label %63

62:                                               ; preds = %49
  store i32 0, i32* %1, align 4
  br label %158

63:                                               ; preds = %49
  br label %64

64:                                               ; preds = %63
  %65 = load i32, i32* %7, align 4
  %66 = add nsw i32 %65, 1
  store i32 %66, i32* %7, align 4
  br label %43

67:                                               ; preds = %43
  %68 = load i32, i32* %4, align 4
  %69 = add nsw i32 %68, 1
  store i32 %69, i32* %8, align 4
  br label %70

70:                                               ; preds = %94, %67
  %71 = load i32, i32* %8, align 4
  %72 = load i32, i32* %2, align 4
  %73 = load i32, i32* %4, align 4
  %74 = sub nsw i32 %72, %73
  %75 = icmp slt i32 %71, %74
  br i1 %75, label %76, label %97

76:                                               ; preds = %70
  %77 = load i32, i32* %8, align 4
  %78 = sext i32 %77 to i64
  %79 = getelementptr inbounds [101 x [101 x i32]], [101 x [101 x i32]]* %11, i64 0, i64 %78
  %80 = load i32, i32* %3, align 4
  %81 = sub nsw i32 %80, 1
  %82 = load i32, i32* %4, align 4
  %83 = sub nsw i32 %81, %82
  %84 = sext i32 %83 to i64
  %85 = getelementptr inbounds [101 x i32], [101 x i32]* %79, i64 0, i64 %84
  %86 = load i32, i32* %85, align 4
  %87 = call i32 (i8*, ...) @printf(i8* getelementptr inbounds ([4 x i8], [4 x i8]* @.str.2, i64 0, i64 0), i32 %86)
  %88 = load i32, i32* %6, align 4
  %89 = add nsw i32 %88, -1
  store i32 %89, i32* %6, align 4
  %90 = load i32, i32* %6, align 4
  %91 = icmp eq i32 %90, 0
  br i1 %91, label %92, label %93

92:                                               ; preds = %76
  store i32 0, i32* %1, align 4
  br label %158

93:                                               ; preds = %76
  br label %94

94:                                               ; preds = %93
  %95 = load i32, i32* %8, align 4
  %96 = add nsw i32 %95, 1
  store i32 %96, i32* %8, align 4
  br label %70

97:                                               ; preds = %70
  %98 = load i32, i32* %3, align 4
  %99 = sub nsw i32 %98, 2
  %100 = load i32, i32* %4, align 4
  %101 = sub nsw i32 %99, %100
  store i32 %101, i32* %9, align 4
  br label %102

102:                                              ; preds = %124, %97
  %103 = load i32, i32* %9, align 4
  %104 = load i32, i32* %4, align 4
  %105 = icmp sge i32 %103, %104
  br i1 %105, label %106, label %127

106:                                              ; preds = %102
  %107 = load i32, i32* %2, align 4
  %108 = sub nsw i32 %107, 1
  %109 = load i32, i32* %4, align 4
  %110 = sub nsw i32 %108, %109
  %111 = sext i32 %110 to i64
  %112 = getelementptr inbounds [101 x [101 x i32]], [101 x [101 x i32]]* %11, i64 0, i64 %111
  %113 = load i32, i32* %9, align 4
  %114 = sext i32 %113 to i64
  %115 = getelementptr inbounds [101 x i32], [101 x i32]* %112, i64 0, i64 %114
  %116 = load i32, i32* %115, align 4
  %117 = call i32 (i8*, ...) @printf(i8* getelementptr inbounds ([4 x i8], [4 x i8]* @.str.2, i64 0, i64 0), i32 %116)
  %118 = load i32, i32* %6, align 4
  %119 = add nsw i32 %118, -1
  store i32 %119, i32* %6, align 4
  %120 = load i32, i32* %6, align 4
  %121 = icmp eq i32 %120, 0
  br i1 %121, label %122, label %123

122:                                              ; preds = %106
  store i32 0, i32* %1, align 4
  br label %158

123:                                              ; preds = %106
  br label %124

124:                                              ; preds = %123
  %125 = load i32, i32* %9, align 4
  %126 = add nsw i32 %125, -1
  store i32 %126, i32* %9, align 4
  br label %102

127:                                              ; preds = %102
  %128 = load i32, i32* %2, align 4
  %129 = sub nsw i32 %128, 2
  %130 = load i32, i32* %4, align 4
  %131 = sub nsw i32 %129, %130
  store i32 %131, i32* %10, align 4
  br label %132

132:                                              ; preds = %151, %127
  %133 = load i32, i32* %10, align 4
  %134 = load i32, i32* %4, align 4
  %135 = icmp sgt i32 %133, %134
  br i1 %135, label %136, label %154

136:                                              ; preds = %132
  %137 = load i32, i32* %10, align 4
  %138 = sext i32 %137 to i64
  %139 = getelementptr inbounds [101 x [101 x i32]], [101 x [101 x i32]]* %11, i64 0, i64 %138
  %140 = load i32, i32* %4, align 4
  %141 = sext i32 %140 to i64
  %142 = getelementptr inbounds [101 x i32], [101 x i32]* %139, i64 0, i64 %141
  %143 = load i32, i32* %142, align 4
  %144 = call i32 (i8*, ...) @printf(i8* getelementptr inbounds ([4 x i8], [4 x i8]* @.str.2, i64 0, i64 0), i32 %143)
  %145 = load i32, i32* %6, align 4
  %146 = add nsw i32 %145, -1
  store i32 %146, i32* %6, align 4
  %147 = load i32, i32* %6, align 4
  %148 = icmp eq i32 %147, 0
  br i1 %148, label %149, label %150

149:                                              ; preds = %136
  store i32 0, i32* %1, align 4
  br label %158

150:                                              ; preds = %136
  br label %151

151:                                              ; preds = %150
  %152 = load i32, i32* %10, align 4
  %153 = add nsw i32 %152, -1
  store i32 %153, i32* %10, align 4
  br label %132

154:                                              ; preds = %132
  br label %155

155:                                              ; preds = %154
  %156 = load i32, i32* %4, align 4
  %157 = add nsw i32 %156, 1
  store i32 %157, i32* %4, align 4
  br label %41

158:                                              ; preds = %149, %122, %92, %62
  %159 = load i32, i32* %1, align 4
  ret i32 %159
}

declare dso_local i32 @__isoc99_scanf(i8*, ...) #1

declare dso_local i32 @printf(i8*, ...) #1


!llvm.module.flags = !{!0}
!llvm.ident = !{!1}

!0 = !{i32 1, !"wchar_size", i32 4}
!1 = !{!"clang version 10.0.0-4ubuntu1 "}
